Certificate:
	Data:
		Version: 3 (0x2)
		Serial Number: 4166 (0x1046)
		Signature Algorithm: sha256WithRSAEncryption
		Issuer: C=US, ST=California, L=Santa Clara, O=Wi-Fi Alliance, CN=WFA Root Certificate/emailAddress=support@wi-fi.org
		Validity
			Not Before: May 10 23:44:51 2013 GMT
			Not After : May  8 23:44:51 2023 GMT
		Subject: C=US, ST=California, O=Wi-Fi Alliance, CN=Client Certificate IDL/emailAddress=support@wi-fi.org
		Subject Public Key Info:
			Public Key Algorithm: rsaEncryption
			RSA Public Key: (2048 bit)
				Modulus (2048 bit):
					00:dc:a3:b9:10:e1:6d:9b:fd:f0:70:d9:98:12:01:
					75:56:04:29:89:5b:4c:9a:c7:c2:ba:f3:69:11:88:
					79:41:d5:a2:79:22:6f:2b:4c:49:2d:66:53:c3:41:
					58:68:3b:75:2b:f8:88:fd:63:cb:a4:0f:71:ea:08:
					c6:bd:e5:3d:5a:dc:bc:bd:96:10:c8:30:4f:d5:46:
					a4:60:65:11:9a:fc:50:bf:8e:48:8a:f6:ef:52:80:
					85:cf:66:a2:64:d6:cf:c9:54:6e:da:ed:d7:82:f0:
					1b:ca:8a:a2:05:85:7a:07:97:43:78:9c:9c:70:54:
					0f:24:6a:0e:3c:75:76:eb:4f:1a:ce:1f:6e:82:f6:
					ac:14:f3:98:92:fd:cd:68:cc:72:4c:9a:ad:39:d9:
					63:d2:41:92:08:4a:af:3e:56:6c:65:09:b6:d7:c5:
					0e:e4:53:6a:19:93:10:ea:5b:78:4c:23:73:8f:4b:
					cd:2c:f2:ae:2d:33:3b:a2:b6:fc:c5:3b:42:6f:00:
					78:21:e0:81:72:13:bc:a0:9c:81:3b:fa:53:3d:7f:
					71:30:cc:40:b0:f6:71:01:74:be:c0:bd:f9:d8:2e:
					19:48:10:8f:12:f3:06:53:52:99:dd:f1:70:39:42:
					ce:d0:6b:8a:cb:36:ea:88:db:bd:d9:21:62:4b:87:
					db:ff
				Exponent: 65537 (0x10001)
		X509v3 extensions:
			X509v3 Basic Constraints: critical
				CA:FALSE, pathlen:0
			X509v3 Key Usage:
				Digital Signature, Non Repudiation, Key Encipherment
			X509v3 Extended Key Usage: critical
				TLS Web Client Authentication
			X509v3 Subject Key Identifier:
				2D:0B:69:B1:F0:F3:A1:65:17:C1:FA:C8:F8:C1:7D:59:3B:37:6B:0B
			X509v3 Authority Key Identifier:
				keyid:0B:03:C2:3E:54:A2:28:BD:3E:49:DE:72:F1:5F:8E:AB:0E:97:67:82

	Signature Algorithm: sha256WithRSAEncryption
		b2:f1:c9:f8:9d:98:4c:2b:04:03:af:6f:8d:29:ac:1a:82:76:
		88:45:c3:b8:72:3e:e7:b8:c8:a3:ef:2a:45:52:bf:9b:58:ac:
		d5:e8:94:01:e7:c4:c4:3b:71:c4:a4:c4:3c:fb:68:ba:b9:58:
		3b:c0:38:8b:ba:1e:a7:d4:f8:dc:17:bc:9f:05:59:76:6c:73:
		7e:ed:78:71:d2:ca:42:b1:3e:be:20:ae:1d:04:dc:04:b4:a8:
		02:fe:bf:49:96:b7:31:e2:11:92:40:d2:3e:d0:8f:4c:9f:cf:
		a7:e5:58:3c:af:20:3e:57:3d:a7:01:2c:fc:a2:e0:17:12:bf:
		4a:ae:91:0c:d8:d3:3e:ce:89:30:28:71:8b:58:92:75:41:12:
		f2:6c:f7:24:38:50:d9:14:16:56:e8:9b:3e:8a:e1:81:5a:8d:
		4f:25:c1:8c:55:1b:63:14:d5:97:78:41:0a:d2:bf:05:de:08:
		c8:54:d7:2e:2f:74:5d:71:ec:78:d6:e3:da:c1:ee:dc:f1:41:
		53:b3:c6:e6:68:4a:40:c5:0e:62:ab:d0:cc:40:c8:5d:3e:92:
		0c:0f:8f:ad:ea:6a:af:05:e7:fc:12:fc:eb:52:ba:19:5e:0b:
		71:f2:81:83:41:c7:75:6f:60:24:1c:99:08:dd:36:8a:01:53:
		c3:9e:8a:ce
-----BEGIN CERTIFICATE-----
MIIEBTCCAu2gAwIBAgICEEYwDQYJKoZIhvcNAQELBQAwgZIxCzAJBgNVBAYTAlVT
MRMwEQYDVQQIDApDYWxpZm9ybmlhMRQwEgYDVQQHDAtTYW50YSBDbGFyYTEXMBUG
A1UECgwOV2ktRmkgQWxsaWFuY2UxHTAbBgNVBAMMFFdGQSBSb290IENlcnRpZmlj
YXRlMSAwHgYJKoZIhvcNAQkBFhFzdXBwb3J0QHdpLWZpLm9yZzAeFw0xMzA1MTAy
MzQ0NTFaFw0yMzA1MDgyMzQ0NTFaMH4xCzAJBgNVBAYTAlVTMRMwEQYDVQQIDApD
YWxpZm9ybmlhMRcwFQYDVQQKDA5XaS1GaSBBbGxpYW5jZTEfMB0GA1UEAwwWQ2xp
ZW50IENlcnRpZmljYXRlIElETDEgMB4GCSqGSIb3DQEJARYRc3VwcG9ydEB3aS1m
aS5vcmcwggEiMA0GCSqGSIb3DQEBAQUAA4IBDwAwggEKAoIBAQDco7kQ4W2b/fBw
2ZgSAXVWBCmJW0yax8K682kRiHlB1aJ5Im8rTEktZlPDQVhoO3Ur+Ij9Y8ukD3Hq
CMa95T1a3Ly9lhDIME/VRqRgZRGa/FC/jkiK9u9SgIXPZqJk1s/JVG7a7deC8BvK
iqIFhXoHl0N4nJxwVA8kag48dXbrTxrOH26C9qwU85iS/c1ozHJMmq052WPSQZII
Sq8+VmxlCbbXxQ7kU2oZkxDqW3hMI3OPS80s8q4tMzuitvzFO0JvAHgh4IFyE7yg
nIE7+lM9f3EwzECw9nEBdL7AvfnYLhlIEI8S8wZTUpnd8XA5Qs7Qa4rLNuqI273Z
IWJLh9v/AgMBAAGjeDB2MA8GA1UdEwEB/wQFMAMCAQAwCwYDVR0PBAQDAgXgMBYG
A1UdJQEB/wQMMAoGCCsGAQUFBwMCMB0GA1UdDgQWBBQtC2mx8POhZRfB+sj4wX1Z
OzdrCzAfBgNVHSMEGDAWgBQLA8I+VKIovT5J3nLxX46rDpdngjANBgkqhkiG9w0B
AQsFAAOCAQEAsvHJ+J2YTCsEA69vjSmsGoJ2iEXDuHI+57jIo+8qRVK/m1is1eiU
AefExDtxxKTEPPtourlYO8A4i7oep9T43Be8nwVZdmxzfu14cdLKQrE+viCuHQTc
BLSoAv6/SZa3MeIRkkDSPtCPTJ/Pp+VYPK8gPlc9pwEs/KLgFxK/Sq6RDNjTPs6J
MChxi1iSdUES8mz3JDhQ2RQWVuibPorhgVqNTyXBjFUbYxTVl3hBCtK/Bd4IyFTX
Li90XXHseNbj2sHu3PFBU7PG5mhKQMUOYqvQzEDIXT6SDA+PrepqrwXn/BL861K6
GV4LcfKBg0HHdW9gJByZCN02igFTw56Kzg==
-----END CERTIFICATE-----
-----BEGIN RSA PRIVATE KEY-----
MIIEpQIBAAKCAQEA3KO5EOFtm/3wcNmYEgF1VgQpiVtMmsfCuvNpEYh5QdWieSJv
K0xJLWZTw0FYaDt1K/iI/WPLpA9x6gjGveU9Wty8vZYQyDBP1UakYGURmvxQv45I
ivbvUoCFz2aiZNbPyVRu2u3XgvAbyoqiBYV6B5dDeJyccFQPJGoOPHV2608azh9u
gvasFPOYkv3NaMxyTJqtOdlj0kGSCEqvPlZsZQm218UO5FNqGZMQ6lt4TCNzj0vN
LPKuLTM7orb8xTtCbwB4IeCBchO8oJyBO/pTPX9xMMxAsPZxAXS+wL352C4ZSBCP
EvMGU1KZ3fFwOULO0GuKyzbqiNu92SFiS4fb/wIDAQABAoIBAQDcnbCc2mt5AM98
Z3aQ+nhSy9Kkj2/njDqAKIc0ituEIpNUwEOcbaj2Bk1W/W3iuyEMGHURuMmUgAUN
WD0w/5j705+9ieG56eTJgts1r5mM+SHch+6tVQAz5GLn4N4cKlaWHyDBM/S77k47
lacwEijUkkFaxm3+O27woEMf3OxNl24KmRenMYBhqcsoT4BYBw3Bh8xe+XN95rXj
2BdIbr5+RWGc9Zsz4o5Wmd4mL/JvbKeohrsecien4TZRzWFku93XV5kie1c1aJy1
nJ85bGJk4focmP/2ToxQysTbPYCxHVTIHuADK/qf9SGHJ9F7EBHE7+0isuwBbqOD
OzS8rHdRAoGBAPCXlaHumEkLIRv3enhpHPBYxnDndNCtT1T6+Cuit/vfo6K6oA7p
iUaej/GPZsDKXhayeTiEaq7QMinUtGkiCgGlVtXghXuCZz6KrH19W6wzC6Pbokmq
BZak4LQcvGavt3VzjliAKLcdn6nQt/+bp/jKDJOKVbvb30sjS035Ah4zAoGBAOrF
BgE9UTEnfQHIh7pyiM1DAomBbdrlRos8maQl26cHqUHN3+wy1bGHLzOjYFFoAasx
eizw7Gudgbae28WIP1yLGrpt15cqVAvlCYmBtZ3C98FuT3FYgEEZpWNmE8Om+5UM
td+mtMjonWAPkCYC+alqUZzeIs+CZs5CHKYCDqcFAoGBAOfkQv38GV2102jARJPQ
RGtINaRXApmrod43s4Fjac/kAzVyiZk18PFXHUhnvlMt+jgIN5yIzMbHtsHo2SbH
/zsM4MBuklm0G80FHjIp5HT6EksSA77amF5VdptDYzfaP4p+IYIdrKCqddzYZrCA
mArMvAhs+iuCRhuG3is+SZNPAoGAHs6r8w2w0dp0tP8zkGvnN8hLVO//EnJzx2G0
Z63wHQMMWu5BLCWflSRANW6C/SvAzE450hvralPI6cX+4PT4G5TFdSFk4RlU3hq4
Has/wewLxv5Kvnz2l5Rd96U1gr8u1GhOlYKyxop/3FMuf050pJ6nBwa/WquqAfb6
+23ZrmECgYEA6l0GFHwMFBNnpPuxHgYgS5+4g3+8DhZZIDc7IflBCBWF/ZwbM+nH
+JSxiYYjvD7zIBhndqERcZ+fvbZTQ8oymr3j5AESM0ZfAHbft6IFQWjDUC3IDUF/
4F0cUidFC8smu6Wa2tjvSIz7DfvmDsn1l+7s9qQvDxdyPas0IkL/v8w=
-----END RSA PRIVATE KEY-----
